; Function Attrs: mustprogress nofree norecurse nosync nounwind willreturn memory(readwrite, inaccessiblemem: none) uwtable
define hidden void @_ZN4cvc57context16ContextNotifyObjC2EPNS0_7ContextEb(ptr noundef nonnull align 8 dereferenceable(24) %this, ptr noundef %pContext, i1 noundef zeroext %preNotify) unnamed_addr #10 align 2 {
entry:
  store ptr getelementptr inbounds ({ [5 x ptr] }, ptr @_ZTVN4cvc57context16ContextNotifyObjE, i64 0, i32 0, i64 2), ptr %this, align 8
  br i1 %preNotify, label %if.then, label %if.else

if.then:                                          ; preds = %entry
  %d_pCNOpre.i = getelementptr inbounds i8, ptr %pContext, i64 32
  %0 = load ptr, ptr %d_pCNOpre.i, align 8
  %cmp.not.i = icmp eq ptr %0, null
  br i1 %cmp.not.i, label %if.end, label %if.end.sink.split

if.else:                                          ; preds = %entry
  %d_pCNOpost.i = getelementptr inbounds i8, ptr %pContext, i64 40
  %1 = load ptr, ptr %d_pCNOpost.i, align 8
  %cmp.not.i2 = icmp eq ptr %1, null
  br i1 %cmp.not.i2, label %if.end, label %if.end.sink.split

if.end.sink.split:                                ; preds = %if.else, %if.then
  %.sink10 = phi ptr [ %0, %if.then ], [ %1, %if.else ]
  %d_pCNOpost.i.sink = phi ptr [ %d_pCNOpre.i, %if.then ], [ %d_pCNOpost.i, %if.else ]
  %d_pCNOnext.i.i4 = getelementptr inbounds i8, ptr %this, i64 8
  %d_ppCNOprev.i.i5 = getelementptr inbounds i8, ptr %.sink10, i64 16
  store ptr %d_pCNOnext.i.i4, ptr %d_ppCNOprev.i.i5, align 8
  %.pre.i6 = load ptr, ptr %d_pCNOpost.i.sink, align 8
  br label %if.end

if.end:                                           ; preds = %if.end.sink.split, %if.else, %if.then
  %.sink = phi ptr [ null, %if.then ], [ null, %if.else ], [ %.pre.i6, %if.end.sink.split ]
  %d_pCNOpost.i.sink9 = phi ptr [ %d_pCNOpre.i, %if.then ], [ %d_pCNOpost.i, %if.else ], [ %d_pCNOpost.i.sink, %if.end.sink.split ]
  %d_pCNOnext.i4.i7 = getelementptr inbounds i8, ptr %this, i64 8
  store ptr %.sink, ptr %d_pCNOnext.i4.i7, align 8
  %d_ppCNOprev.i5.i8 = getelementptr inbounds i8, ptr %this, i64 16
  store ptr %d_pCNOpost.i.sink9, ptr %d_ppCNOprev.i5.i8, align 8
  store ptr %this, ptr %d_pCNOpost.i.sink9, align 8
  ret void
}